target datalayout = "e-m:e-p270:32:32-p271:32:32-p272:64:64-i64:64-i128:128-f80:128-n8:16:32:64-S128"
target triple = "x86_64-pc-linux-gnu"

%struct.pointf_s = type { double, double }
%struct.Agobj_s = type { %struct.Agtag_s, ptr }
%struct.Agtag_s = type { i32, i64 }
%struct.Agnodeinfo_t = type { %struct.Agrec_s, ptr, ptr, %struct.pointf_s, double, double, %struct.boxf, double, double, double, double, double, ptr, ptr, ptr, i8, i8, i8, i8, i32, i32, i32, ptr, double, i8, i8, ptr, ptr, i8, i64, i8, i8, i8, ptr, ptr, %struct.elist, %struct.elist, %struct.elist, %struct.elist, %struct.elist, ptr, i32, ptr, i32, i32, double, %struct.elist, %struct.elist, %struct.elist, %struct.elist, ptr, i32, i32, i32, [1 x double] }
%struct.Agrec_s = type { ptr, ptr }
%struct.boxf = type { %struct.pointf_s, %struct.pointf_s }
%struct.elist = type { ptr, i64 }
%struct.textlabel_t = type { ptr, ptr, ptr, i32, double, %struct.pointf_s, %struct.pointf_s, %struct.pointf_s, %union.anon.0, i8, i8, i8 }
%union.anon.0 = type { %struct.anon.1 }
%struct.anon.1 = type { ptr, i64 }
%struct.field_t = type { %struct.pointf_s, %struct.boxf, i32, ptr, ptr, ptr, i8, i8 }

@.str.95 = private unnamed_addr constant [6 x i8] c"black\00", align 1
@.str.99 = private unnamed_addr constant [1 x i8] zeroinitializer, align 1
@N_color = external global ptr, align 8

; Function Attrs: nounwind uwtable
define internal ptr @penColor(ptr noundef %0, ptr noundef %1) #0 {
  %3 = alloca ptr, align 8
  %4 = alloca ptr, align 8
  %5 = alloca ptr, align 8
  store ptr %0, ptr %3, align 8, !tbaa !3
  store ptr %1, ptr %4, align 8, !tbaa !35
  call void @llvm.lifetime.start.p0(i64 8, ptr %5) #13
  %6 = load ptr, ptr %4, align 8, !tbaa !35
  %7 = load ptr, ptr @N_color, align 8, !tbaa !72
  %8 = call ptr @late_nnstring(ptr noundef %6, ptr noundef %7, ptr noundef @.str.99)
  store ptr %8, ptr %5, align 8, !tbaa !75
  %9 = load ptr, ptr %5, align 8, !tbaa !75
  %10 = getelementptr inbounds i8, ptr %9, i64 0
  %11 = load i8, ptr %10, align 1, !tbaa !98
  %12 = icmp ne i8 %11, 0
  br i1 %12, label %14, label %13

13:                                               ; preds = %2
  store ptr @.str.95, ptr %5, align 8, !tbaa !75
  br label %14

14:                                               ; preds = %13, %2
  %15 = load ptr, ptr %3, align 8, !tbaa !3
  %16 = load ptr, ptr %5, align 8, !tbaa !75
  call void @gvrender_set_pencolor(ptr noundef %15, ptr noundef %16)
  %17 = load ptr, ptr %5, align 8, !tbaa !75
  call void @llvm.lifetime.end.p0(i64 8, ptr %5) #13
  ret ptr %17
}

; Function Attrs: inlinehint nounwind uwtable
define internal { double, double } @add_pointf(double %0, double %1, double %2, double %3) #5 {
  %5 = alloca %struct.pointf_s, align 8
  %6 = alloca %struct.pointf_s, align 8
  %7 = alloca %struct.pointf_s, align 8
  %8 = getelementptr inbounds nuw { double, double }, ptr %6, i32 0, i32 0
  store double %0, ptr %8, align 8
  %9 = getelementptr inbounds nuw { double, double }, ptr %6, i32 0, i32 1
  store double %1, ptr %9, align 8
  %10 = getelementptr inbounds nuw { double, double }, ptr %7, i32 0, i32 0
  store double %2, ptr %10, align 8
  %11 = getelementptr inbounds nuw { double, double }, ptr %7, i32 0, i32 1
  store double %3, ptr %11, align 8
  %12 = getelementptr inbounds nuw %struct.pointf_s, ptr %6, i32 0, i32 0
  %13 = load double, ptr %12, align 8, !tbaa !21
  %14 = getelementptr inbounds nuw %struct.pointf_s, ptr %7, i32 0, i32 0
  %15 = load double, ptr %14, align 8, !tbaa !21
  %16 = fadd double %13, %15
  %17 = getelementptr inbounds nuw %struct.pointf_s, ptr %5, i32 0, i32 0
  store double %16, ptr %17, align 8, !tbaa !21
  %18 = getelementptr inbounds nuw %struct.pointf_s, ptr %6, i32 0, i32 1
  %19 = load double, ptr %18, align 8, !tbaa !23
  %20 = getelementptr inbounds nuw %struct.pointf_s, ptr %7, i32 0, i32 1
  %21 = load double, ptr %20, align 8, !tbaa !23
  %22 = fadd double %19, %21
  %23 = getelementptr inbounds nuw %struct.pointf_s, ptr %5, i32 0, i32 1
  store double %22, ptr %23, align 8, !tbaa !23
  %24 = load { double, double }, ptr %5, align 8
  ret { double, double } %24
}

; Function Attrs: inlinehint nounwind uwtable
define internal { double, double } @mid_pointf(double %0, double %1, double %2, double %3) #5 {
  %5 = alloca %struct.pointf_s, align 8
  %6 = alloca %struct.pointf_s, align 8
  %7 = alloca %struct.pointf_s, align 8
  %8 = getelementptr inbounds nuw { double, double }, ptr %6, i32 0, i32 0
  store double %0, ptr %8, align 8
  %9 = getelementptr inbounds nuw { double, double }, ptr %6, i32 0, i32 1
  store double %1, ptr %9, align 8
  %10 = getelementptr inbounds nuw { double, double }, ptr %7, i32 0, i32 0
  store double %2, ptr %10, align 8
  %11 = getelementptr inbounds nuw { double, double }, ptr %7, i32 0, i32 1
  store double %3, ptr %11, align 8
  %12 = getelementptr inbounds nuw %struct.pointf_s, ptr %6, i32 0, i32 0
  %13 = load double, ptr %12, align 8, !tbaa !21
  %14 = getelementptr inbounds nuw %struct.pointf_s, ptr %7, i32 0, i32 0
  %15 = load double, ptr %14, align 8, !tbaa !21
  %16 = fadd double %13, %15
  %17 = fdiv double %16, 2.000000e+00
  %18 = getelementptr inbounds nuw %struct.pointf_s, ptr %5, i32 0, i32 0
  store double %17, ptr %18, align 8, !tbaa !21
  %19 = getelementptr inbounds nuw %struct.pointf_s, ptr %6, i32 0, i32 1
  %20 = load double, ptr %19, align 8, !tbaa !23
  %21 = getelementptr inbounds nuw %struct.pointf_s, ptr %7, i32 0, i32 1
  %22 = load double, ptr %21, align 8, !tbaa !23
  %23 = fadd double %20, %22
  %24 = fdiv double %23, 2.000000e+00
  %25 = getelementptr inbounds nuw %struct.pointf_s, ptr %5, i32 0, i32 1
  store double %24, ptr %25, align 8, !tbaa !23
  %26 = load { double, double }, ptr %5, align 8
  ret { double, double } %26
}

; Function Attrs: nounwind uwtable
define internal void @gen_fields(ptr noundef %0, ptr noundef %1, ptr noundef %2) #0 {
  %4 = alloca ptr, align 8
  %5 = alloca ptr, align 8
  %6 = alloca ptr, align 8
  %7 = alloca i32, align 4
  %8 = alloca [2 x %struct.pointf_s], align 16
  %9 = alloca %struct.pointf_s, align 8
  %10 = alloca %struct.pointf_s, align 8
  %11 = alloca %struct.pointf_s, align 8
  %12 = alloca %struct.pointf_s, align 8
  %13 = alloca %struct.pointf_s, align 8
  store ptr %0, ptr %4, align 8, !tbaa !3
  store ptr %1, ptr %5, align 8, !tbaa !35
  store ptr %2, ptr %6, align 8, !tbaa !120
  call void @llvm.lifetime.start.p0(i64 4, ptr %7) #13
  call void @llvm.lifetime.start.p0(i64 32, ptr %8) #13
  call void @llvm.lifetime.start.p0(i64 16, ptr %9) #13
  %14 = load ptr, ptr %6, align 8, !tbaa !120
  %15 = getelementptr inbounds nuw %struct.field_t, ptr %14, i32 0, i32 3
  %16 = load ptr, ptr %15, align 8, !tbaa !184
  %17 = icmp ne ptr %16, null
  br i1 %17, label %18, label %66

18:                                               ; preds = %3
  %19 = load ptr, ptr %6, align 8, !tbaa !120
  %20 = getelementptr inbounds nuw %struct.field_t, ptr %19, i32 0, i32 3
  %21 = load ptr, ptr %20, align 8, !tbaa !184
  %22 = getelementptr inbounds nuw %struct.textlabel_t, ptr %21, i32 0, i32 7
  call void @llvm.lifetime.start.p0(i64 16, ptr %10) #13
  %23 = load ptr, ptr %6, align 8, !tbaa !120
  %24 = getelementptr inbounds nuw %struct.field_t, ptr %23, i32 0, i32 1
  %25 = getelementptr inbounds nuw %struct.boxf, ptr %24, i32 0, i32 0
  %26 = load ptr, ptr %6, align 8, !tbaa !120
  %27 = getelementptr inbounds nuw %struct.field_t, ptr %26, i32 0, i32 1
  %28 = getelementptr inbounds nuw %struct.boxf, ptr %27, i32 0, i32 1
  %29 = getelementptr inbounds nuw { double, double }, ptr %25, i32 0, i32 0
  %30 = load double, ptr %29, align 8
  %31 = getelementptr inbounds nuw { double, double }, ptr %25, i32 0, i32 1
  %32 = load double, ptr %31, align 8
  %33 = getelementptr inbounds nuw { double, double }, ptr %28, i32 0, i32 0
  %34 = load double, ptr %33, align 8
  %35 = getelementptr inbounds nuw { double, double }, ptr %28, i32 0, i32 1
  %36 = load double, ptr %35, align 8
  %37 = call { double, double } @mid_pointf(double %30, double %32, double %34, double %36)
  %38 = getelementptr inbounds nuw { double, double }, ptr %11, i32 0, i32 0
  %39 = extractvalue { double, double } %37, 0
  store double %39, ptr %38, align 8
  %40 = getelementptr inbounds nuw { double, double }, ptr %11, i32 0, i32 1
  %41 = extractvalue { double, double } %37, 1
  store double %41, ptr %40, align 8
  %42 = load ptr, ptr %5, align 8, !tbaa !35
  %43 = getelementptr inbounds nuw %struct.Agobj_s, ptr %42, i32 0, i32 1
  %44 = load ptr, ptr %43, align 8, !tbaa !37
  %45 = getelementptr inbounds nuw %struct.Agnodeinfo_t, ptr %44, i32 0, i32 3
  %46 = getelementptr inbounds nuw { double, double }, ptr %11, i32 0, i32 0
  %47 = load double, ptr %46, align 8
  %48 = getelementptr inbounds nuw { double, double }, ptr %11, i32 0, i32 1
  %49 = load double, ptr %48, align 8
  %50 = getelementptr inbounds nuw { double, double }, ptr %45, i32 0, i32 0
  %51 = load double, ptr %50, align 8
  %52 = getelementptr inbounds nuw { double, double }, ptr %45, i32 0, i32 1
  %53 = load double, ptr %52, align 8
  %54 = call { double, double } @add_pointf(double %47, double %49, double %51, double %53)
  %55 = getelementptr inbounds nuw { double, double }, ptr %10, i32 0, i32 0
  %56 = extractvalue { double, double } %54, 0
  store double %56, ptr %55, align 8
  %57 = getelementptr inbounds nuw { double, double }, ptr %10, i32 0, i32 1
  %58 = extractvalue { double, double } %54, 1
  store double %58, ptr %57, align 8
  call void @llvm.memcpy.p0.p0.i64(ptr align 8 %22, ptr align 8 %10, i64 16, i1 false), !tbaa.struct !16
  call void @llvm.lifetime.end.p0(i64 16, ptr %10) #13
  %59 = load ptr, ptr %4, align 8, !tbaa !3
  %60 = load ptr, ptr %6, align 8, !tbaa !120
  %61 = getelementptr inbounds nuw %struct.field_t, ptr %60, i32 0, i32 3
  %62 = load ptr, ptr %61, align 8, !tbaa !184
  call void @emit_label(ptr noundef %59, i32 noundef 10, ptr noundef %62)
  %63 = load ptr, ptr %4, align 8, !tbaa !3
  %64 = load ptr, ptr %5, align 8, !tbaa !35
  %65 = call ptr @penColor(ptr noundef %63, ptr noundef %64)
  br label %66

66:                                               ; preds = %18, %3
  %67 = load ptr, ptr %5, align 8, !tbaa !35
  %68 = getelementptr inbounds nuw %struct.Agobj_s, ptr %67, i32 0, i32 1
  %69 = load ptr, ptr %68, align 8, !tbaa !37
  %70 = getelementptr inbounds nuw %struct.Agnodeinfo_t, ptr %69, i32 0, i32 3
  call void @llvm.memcpy.p0.p0.i64(ptr align 8 %9, ptr align 8 %70, i64 16, i1 false), !tbaa.struct !16
  store i32 0, ptr %7, align 4, !tbaa !12
  br label %71

71:                                               ; preds = %186, %66
  %72 = load i32, ptr %7, align 4, !tbaa !12
  %73 = load ptr, ptr %6, align 8, !tbaa !120
  %74 = getelementptr inbounds nuw %struct.field_t, ptr %73, i32 0, i32 2
  %75 = load i32, ptr %74, align 8, !tbaa !185
  %76 = icmp slt i32 %72, %75
  br i1 %76, label %77, label %189

77:                                               ; preds = %71
  %78 = load i32, ptr %7, align 4, !tbaa !12
  %79 = icmp sgt i32 %78, 0
  br i1 %79, label %80, label %176

80:                                               ; preds = %77
  %81 = load ptr, ptr %6, align 8, !tbaa !120
  %82 = getelementptr inbounds nuw %struct.field_t, ptr %81, i32 0, i32 6
  %83 = load i8, ptr %82, align 8, !tbaa !177
  %84 = icmp ne i8 %83, 0
  br i1 %84, label %85, label %114

85:                                               ; preds = %80
  %86 = getelementptr inbounds [2 x %struct.pointf_s], ptr %8, i64 0, i64 0
  %87 = load ptr, ptr %6, align 8, !tbaa !120
  %88 = getelementptr inbounds nuw %struct.field_t, ptr %87, i32 0, i32 4
  %89 = load ptr, ptr %88, align 8, !tbaa !176
  %90 = load i32, ptr %7, align 4, !tbaa !12
  %91 = sext i32 %90 to i64
  %92 = getelementptr inbounds ptr, ptr %89, i64 %91
  %93 = load ptr, ptr %92, align 8, !tbaa !120
  %94 = getelementptr inbounds nuw %struct.field_t, ptr %93, i32 0, i32 1
  %95 = getelementptr inbounds nuw %struct.boxf, ptr %94, i32 0, i32 0
  call void @llvm.memcpy.p0.p0.i64(ptr align 16 %86, ptr align 8 %95, i64 16, i1 false), !tbaa.struct !16
  %96 = getelementptr inbounds [2 x %struct.pointf_s], ptr %8, i64 0, i64 0
  %97 = getelementptr inbounds nuw %struct.pointf_s, ptr %96, i32 0, i32 0
  %98 = load double, ptr %97, align 16, !tbaa !21
  %99 = getelementptr inbounds [2 x %struct.pointf_s], ptr %8, i64 0, i64 1
  %100 = getelementptr inbounds nuw %struct.pointf_s, ptr %99, i32 0, i32 0
  store double %98, ptr %100, align 16, !tbaa !21
  %101 = load ptr, ptr %6, align 8, !tbaa !120
  %102 = getelementptr inbounds nuw %struct.field_t, ptr %101, i32 0, i32 4
  %103 = load ptr, ptr %102, align 8, !tbaa !176
  %104 = load i32, ptr %7, align 4, !tbaa !12
  %105 = sext i32 %104 to i64
  %106 = getelementptr inbounds ptr, ptr %103, i64 %105
  %107 = load ptr, ptr %106, align 8, !tbaa !120
  %108 = getelementptr inbounds nuw %struct.field_t, ptr %107, i32 0, i32 1
  %109 = getelementptr inbounds nuw %struct.boxf, ptr %108, i32 0, i32 1
  %110 = getelementptr inbounds nuw %struct.pointf_s, ptr %109, i32 0, i32 1
  %111 = load double, ptr %110, align 8, !tbaa !236
  %112 = getelementptr inbounds [2 x %struct.pointf_s], ptr %8, i64 0, i64 1
  %113 = getelementptr inbounds nuw %struct.pointf_s, ptr %112, i32 0, i32 1
  store double %111, ptr %113, align 8, !tbaa !23
  br label %143

114:                                              ; preds = %80
  %115 = getelementptr inbounds [2 x %struct.pointf_s], ptr %8, i64 0, i64 1
  %116 = load ptr, ptr %6, align 8, !tbaa !120
  %117 = getelementptr inbounds nuw %struct.field_t, ptr %116, i32 0, i32 4
  %118 = load ptr, ptr %117, align 8, !tbaa !176
  %119 = load i32, ptr %7, align 4, !tbaa !12
  %120 = sext i32 %119 to i64
  %121 = getelementptr inbounds ptr, ptr %118, i64 %120
  %122 = load ptr, ptr %121, align 8, !tbaa !120
  %123 = getelementptr inbounds nuw %struct.field_t, ptr %122, i32 0, i32 1
  %124 = getelementptr inbounds nuw %struct.boxf, ptr %123, i32 0, i32 1
  call void @llvm.memcpy.p0.p0.i64(ptr align 16 %115, ptr align 8 %124, i64 16, i1 false), !tbaa.struct !16
  %125 = load ptr, ptr %6, align 8, !tbaa !120
  %126 = getelementptr inbounds nuw %struct.field_t, ptr %125, i32 0, i32 4
  %127 = load ptr, ptr %126, align 8, !tbaa !176
  %128 = load i32, ptr %7, align 4, !tbaa !12
  %129 = sext i32 %128 to i64
  %130 = getelementptr inbounds ptr, ptr %127, i64 %129
  %131 = load ptr, ptr %130, align 8, !tbaa !120
  %132 = getelementptr inbounds nuw %struct.field_t, ptr %131, i32 0, i32 1
  %133 = getelementptr inbounds nuw %struct.boxf, ptr %132, i32 0, i32 0
  %134 = getelementptr inbounds nuw %struct.pointf_s, ptr %133, i32 0, i32 0
  %135 = load double, ptr %134, align 8, !tbaa !233
  %136 = getelementptr inbounds [2 x %struct.pointf_s], ptr %8, i64 0, i64 0
  %137 = getelementptr inbounds nuw %struct.pointf_s, ptr %136, i32 0, i32 0
  store double %135, ptr %137, align 16, !tbaa !21
  %138 = getelementptr inbounds [2 x %struct.pointf_s], ptr %8, i64 0, i64 1
  %139 = getelementptr inbounds nuw %struct.pointf_s, ptr %138, i32 0, i32 1
  %140 = load double, ptr %139, align 8, !tbaa !23
  %141 = getelementptr inbounds [2 x %struct.pointf_s], ptr %8, i64 0, i64 0
  %142 = getelementptr inbounds nuw %struct.pointf_s, ptr %141, i32 0, i32 1
  store double %140, ptr %142, align 8, !tbaa !23
  br label %143

143:                                              ; preds = %114, %85
  %144 = getelementptr inbounds [2 x %struct.pointf_s], ptr %8, i64 0, i64 0
  call void @llvm.lifetime.start.p0(i64 16, ptr %12) #13
  %145 = getelementptr inbounds [2 x %struct.pointf_s], ptr %8, i64 0, i64 0
  %146 = getelementptr inbounds nuw { double, double }, ptr %145, i32 0, i32 0
  %147 = load double, ptr %146, align 16
  %148 = getelementptr inbounds nuw { double, double }, ptr %145, i32 0, i32 1
  %149 = load double, ptr %148, align 8
  %150 = getelementptr inbounds nuw { double, double }, ptr %9, i32 0, i32 0
  %151 = load double, ptr %150, align 8
  %152 = getelementptr inbounds nuw { double, double }, ptr %9, i32 0, i32 1
  %153 = load double, ptr %152, align 8
  %154 = call { double, double } @add_pointf(double %147, double %149, double %151, double %153)
  %155 = getelementptr inbounds nuw { double, double }, ptr %12, i32 0, i32 0
  %156 = extractvalue { double, double } %154, 0
  store double %156, ptr %155, align 8
  %157 = getelementptr inbounds nuw { double, double }, ptr %12, i32 0, i32 1
  %158 = extractvalue { double, double } %154, 1
  store double %158, ptr %157, align 8
  call void @llvm.memcpy.p0.p0.i64(ptr align 16 %144, ptr align 8 %12, i64 16, i1 false), !tbaa.struct !16
  call void @llvm.lifetime.end.p0(i64 16, ptr %12) #13
  %159 = getelementptr inbounds [2 x %struct.pointf_s], ptr %8, i64 0, i64 1
  call void @llvm.lifetime.start.p0(i64 16, ptr %13) #13
  %160 = getelementptr inbounds [2 x %struct.pointf_s], ptr %8, i64 0, i64 1
  %161 = getelementptr inbounds nuw { double, double }, ptr %160, i32 0, i32 0
  %162 = load double, ptr %161, align 16
  %163 = getelementptr inbounds nuw { double, double }, ptr %160, i32 0, i32 1
  %164 = load double, ptr %163, align 8
  %165 = getelementptr inbounds nuw { double, double }, ptr %9, i32 0, i32 0
  %166 = load double, ptr %165, align 8
  %167 = getelementptr inbounds nuw { double, double }, ptr %9, i32 0, i32 1
  %168 = load double, ptr %167, align 8
  %169 = call { double, double } @add_pointf(double %162, double %164, double %166, double %168)
  %170 = getelementptr inbounds nuw { double, double }, ptr %13, i32 0, i32 0
  %171 = extractvalue { double, double } %169, 0
  store double %171, ptr %170, align 8
  %172 = getelementptr inbounds nuw { double, double }, ptr %13, i32 0, i32 1
  %173 = extractvalue { double, double } %169, 1
  store double %173, ptr %172, align 8
  call void @llvm.memcpy.p0.p0.i64(ptr align 16 %159, ptr align 8 %13, i64 16, i1 false), !tbaa.struct !16
  call void @llvm.lifetime.end.p0(i64 16, ptr %13) #13
  %174 = load ptr, ptr %4, align 8, !tbaa !3
  %175 = getelementptr inbounds [2 x %struct.pointf_s], ptr %8, i64 0, i64 0
  call void @gvrender_polyline(ptr noundef %174, ptr noundef %175, i64 noundef 2)
  br label %176

176:                                              ; preds = %143, %77
  %177 = load ptr, ptr %4, align 8, !tbaa !3
  %178 = load ptr, ptr %5, align 8, !tbaa !35
  %179 = load ptr, ptr %6, align 8, !tbaa !120
  %180 = getelementptr inbounds nuw %struct.field_t, ptr %179, i32 0, i32 4
  %181 = load ptr, ptr %180, align 8, !tbaa !176
  %182 = load i32, ptr %7, align 4, !tbaa !12
  %183 = sext i32 %182 to i64
  %184 = getelementptr inbounds ptr, ptr %181, i64 %183
  %185 = load ptr, ptr %184, align 8, !tbaa !120
  call void @gen_fields(ptr noundef %177, ptr noundef %178, ptr noundef %185)
  br label %186

186:                                              ; preds = %176
  %187 = load i32, ptr %7, align 4, !tbaa !12
  %188 = add nsw i32 %187, 1
  store i32 %188, ptr %7, align 4, !tbaa !12
  br label %71, !llvm.loop !239

189:                                              ; preds = %71
  call void @llvm.lifetime.end.p0(i64 16, ptr %9) #13
  call void @llvm.lifetime.end.p0(i64 32, ptr %8) #13
  call void @llvm.lifetime.end.p0(i64 4, ptr %7) #13
  ret void
}