; Function Attrs: nounwind uwtable
define internal fastcc void @gen_fields(ptr noundef %0, ptr noundef %1, ptr noundef readonly captures(none) %2) unnamed_addr #0 {
  %4 = alloca [2 x %struct.pointf_s], align 16
  call void @llvm.lifetime.start.p0(i64 32, ptr nonnull %4) #26
  %5 = getelementptr inbounds nuw i8, ptr %2, i64 56
  %6 = load ptr, ptr %5, align 8, !tbaa !162
  %.not = icmp eq ptr %6, null
  br i1 %.not, label %32, label %7

7:                                                ; preds = %3
  %8 = getelementptr inbounds nuw i8, ptr %6, i64 72
  %9 = getelementptr inbounds nuw i8, ptr %2, i64 16
  %10 = getelementptr inbounds nuw i8, ptr %2, i64 32
  %11 = load double, ptr %9, align 8
  %12 = getelementptr inbounds nuw i8, ptr %2, i64 24
  %13 = load double, ptr %12, align 8
  %14 = load double, ptr %10, align 8
  %15 = getelementptr inbounds nuw i8, ptr %2, i64 40
  %16 = load double, ptr %15, align 8
  %17 = fadd double %11, %14
  %18 = fmul double %17, 5.000000e-01
  %19 = fadd double %13, %16
  %20 = fmul double %19, 5.000000e-01
  %21 = getelementptr inbounds nuw i8, ptr %1, i64 16
  %22 = load ptr, ptr %21, align 8, !tbaa !21
  %23 = getelementptr inbounds nuw i8, ptr %22, i64 32
  %24 = load double, ptr %23, align 8
  %25 = getelementptr inbounds nuw i8, ptr %22, i64 40
  %26 = load double, ptr %25, align 8
  %27 = fadd double %18, %24
  %28 = fadd double %20, %26
  store double %27, ptr %8, align 8, !tbaa !4
  %.sroa.45.0..sroa_idx = getelementptr inbounds nuw i8, ptr %6, i64 80
  store double %28, ptr %.sroa.45.0..sroa_idx, align 8, !tbaa !4
  tail call void @emit_label(ptr noundef %0, i32 noundef 10, ptr noundef nonnull %6) #26
  %29 = load ptr, ptr @N_color, align 8, !tbaa !56
  %30 = tail call ptr @late_nnstring(ptr noundef %1, ptr noundef %29, ptr noundef nonnull @.str.99) #26
  %31 = load i8, ptr %30, align 1, !tbaa !81
  %.not.i = icmp eq i8 %31, 0
  %spec.store.select.i = select i1 %.not.i, ptr @.str.95, ptr %30
  tail call void @gvrender_set_pencolor(ptr noundef %0, ptr noundef nonnull %spec.store.select.i) #26
  br label %32

32:                                               ; preds = %7, %3
  %33 = getelementptr inbounds nuw i8, ptr %1, i64 16
  %34 = load ptr, ptr %33, align 8, !tbaa !21
  %35 = getelementptr inbounds nuw i8, ptr %34, i64 32
  %.sroa.06.0.copyload = load double, ptr %35, align 8, !tbaa !4
  %.sroa.5.0..sroa_idx = getelementptr inbounds nuw i8, ptr %34, i64 40
  %.sroa.5.0.copyload = load double, ptr %.sroa.5.0..sroa_idx, align 8, !tbaa !4
  %36 = getelementptr inbounds nuw i8, ptr %2, i64 48
  %37 = load i32, ptr %36, align 8, !tbaa !163
  %38 = icmp sgt i32 %37, 0
  br i1 %38, label %.lr.ph, label %._crit_edge

.lr.ph:                                           ; preds = %32
  %39 = getelementptr inbounds nuw i8, ptr %2, i64 80
  %40 = getelementptr inbounds nuw i8, ptr %2, i64 64
  %41 = getelementptr inbounds nuw i8, ptr %4, i64 16
  %42 = getelementptr inbounds nuw i8, ptr %4, i64 24
  %43 = getelementptr inbounds nuw i8, ptr %4, i64 8
  br label %44

44:                                               ; preds = %.lr.ph, %71
  %indvars.iv = phi i64 [ 0, %.lr.ph ], [ %indvars.iv.next, %71 ]
  %.not36 = icmp eq i64 %indvars.iv, 0
  br i1 %.not36, label %71, label %45

45:                                               ; preds = %44
  %46 = load i8, ptr %39, align 8, !tbaa !153
  %.not37 = icmp eq i8 %46, 0
  %47 = load ptr, ptr %40, align 8, !tbaa !152
  %48 = getelementptr inbounds nuw ptr, ptr %47, i64 %indvars.iv
  %49 = load ptr, ptr %48, align 8, !tbaa !156
  br i1 %.not37, label %56, label %50

50:                                               ; preds = %45
  %51 = getelementptr inbounds nuw i8, ptr %49, i64 16
  call void @llvm.memcpy.p0.p0.i64(ptr noundef nonnull align 16 dereferenceable(16) %4, ptr noundef nonnull align 8 dereferenceable(16) %51, i64 16, i1 false), !tbaa.struct !3
  %52 = load double, ptr %4, align 16, !tbaa !16
  %53 = load ptr, ptr %48, align 8, !tbaa !156
  %54 = getelementptr inbounds nuw i8, ptr %53, i64 40
  %55 = load double, ptr %54, align 8, !tbaa !216
  %.pre = load double, ptr %43, align 8
  br label %62

56:                                               ; preds = %45
  %57 = getelementptr inbounds nuw i8, ptr %49, i64 32
  call void @llvm.memcpy.p0.p0.i64(ptr noundef nonnull align 16 dereferenceable(16) %41, ptr noundef nonnull align 8 dereferenceable(16) %57, i64 16, i1 false), !tbaa.struct !3
  %58 = load ptr, ptr %48, align 8, !tbaa !156
  %59 = getelementptr inbounds nuw i8, ptr %58, i64 16
  %60 = load double, ptr %59, align 8, !tbaa !217
  %61 = load double, ptr %42, align 8, !tbaa !14
  %.pre46 = load double, ptr %41, align 16
  br label %62

62:                                               ; preds = %56, %50
  %63 = phi double [ %61, %56 ], [ %55, %50 ]
  %64 = phi double [ %.pre46, %56 ], [ %52, %50 ]
  %65 = phi double [ %61, %56 ], [ %.pre, %50 ]
  %66 = phi double [ %60, %56 ], [ %52, %50 ]
  %67 = fadd double %.sroa.06.0.copyload, %66
  %68 = fadd double %.sroa.5.0.copyload, %65
  store double %67, ptr %4, align 16, !tbaa !4
  store double %68, ptr %43, align 8, !tbaa !4
  %69 = fadd double %.sroa.06.0.copyload, %64
  %70 = fadd double %.sroa.5.0.copyload, %63
  store double %69, ptr %41, align 16, !tbaa !4
  store double %70, ptr %42, align 8, !tbaa !4
  call void @gvrender_polyline(ptr noundef %0, ptr noundef nonnull %4, i64 noundef 2) #26
  br label %71

71:                                               ; preds = %62, %44
  %72 = load ptr, ptr %40, align 8, !tbaa !152
  %73 = getelementptr inbounds nuw ptr, ptr %72, i64 %indvars.iv
  %74 = load ptr, ptr %73, align 8, !tbaa !156
  call fastcc void @gen_fields(ptr noundef %0, ptr noundef %1, ptr noundef %74)
  %indvars.iv.next = add nuw nsw i64 %indvars.iv, 1
  %75 = load i32, ptr %36, align 8, !tbaa !163
  %76 = sext i32 %75 to i64
  %77 = icmp slt i64 %indvars.iv.next, %76
  br i1 %77, label %44, label %._crit_edge, !llvm.loop !218

._crit_edge:                                      ; preds = %71, %32
  call void @llvm.lifetime.end.p0(i64 32, ptr nonnull %4) #26
  ret void
}